target datalayout = "e-m:e-p270:32:32-p271:32:32-p272:64:64-i64:64-i128:128-f80:128-n8:16:32:64-S128"
target triple = "x86_64-pc-linux-gnu"

%struct.func_args = type { i32, ptr, i32, ptr, ptr }

@.str.32 = private unnamed_addr constant [19 x i8] c"./certs/dh2048.pem\00", align 1
@.str.33 = private unnamed_addr constant [3 x i8] c"rb\00", align 1
@.str.34 = private unnamed_addr constant [4 x i8] c"../\00", align 1
@.str.35 = private unnamed_addr constant [22 x i8] c"chdir to ../ failed!\0A\00", align 1
@.str.36 = private unnamed_addr constant [20 x i8] c"wolf root not found\00", align 1

; Function Attrs: inlinehint nounwind uwtable
define internal i32 @ChangeToWolfRoot() #4 {
  %1 = alloca i32, align 4
  %2 = alloca i32, align 4
  %3 = alloca i32, align 4
  %4 = alloca ptr, align 8
  %5 = alloca i32, align 4
  call void @llvm.lifetime.start.p0(i64 4, ptr %2) #11
  store i32 0, ptr %2, align 4, !tbaa !8
  br label %6

6:                                                ; preds = %27, %0
  %7 = load i32, ptr %2, align 4, !tbaa !8
  %8 = icmp sle i32 %7, 5
  br i1 %8, label %9, label %30

9:                                                ; preds = %6
  call void @llvm.lifetime.start.p0(i64 4, ptr %3) #11
  call void @llvm.lifetime.start.p0(i64 8, ptr %4) #11
  %10 = call noalias ptr @fopen(ptr noundef @.str.32, ptr noundef @.str.33)
  store ptr %10, ptr %4, align 8, !tbaa !10
  %11 = load ptr, ptr %4, align 8, !tbaa !10
  %12 = icmp ne ptr %11, null
  br i1 %12, label %13, label %17

13:                                               ; preds = %9
  %14 = load ptr, ptr %4, align 8, !tbaa !10
  %15 = call i32 @fclose(ptr noundef %14)
  %16 = load i32, ptr %2, align 4, !tbaa !8
  store i32 %16, ptr %1, align 4
  store i32 1, ptr %5, align 4
  br label %24

17:                                               ; preds = %9
  %18 = call i32 @chdir(ptr noundef @.str.34) #11
  store i32 %18, ptr %3, align 4, !tbaa !8
  %19 = load i32, ptr %3, align 4, !tbaa !8
  %20 = icmp slt i32 %19, 0
  br i1 %20, label %21, label %23

21:                                               ; preds = %17
  %22 = call i32 (ptr, ...) @printf(ptr noundef @.str.35)
  store i32 2, ptr %5, align 4
  br label %24

23:                                               ; preds = %17
  store i32 0, ptr %5, align 4
  br label %24

24:                                               ; preds = %23, %21, %13
  call void @llvm.lifetime.end.p0(i64 8, ptr %4) #11
  call void @llvm.lifetime.end.p0(i64 4, ptr %3) #11
  %25 = load i32, ptr %5, align 4
  switch i32 %25, label %31 [
    i32 0, label %26
    i32 2, label %30
  ]

26:                                               ; preds = %24
  br label %27

27:                                               ; preds = %26
  %28 = load i32, ptr %2, align 4, !tbaa !8
  %29 = add nsw i32 %28, 1
  store i32 %29, ptr %2, align 4, !tbaa !8
  br label %6, !llvm.loop !39

30:                                               ; preds = %24, %6
  call void @err_sys(ptr noundef @.str.36) #12
  unreachable

31:                                               ; preds = %24
  call void @llvm.lifetime.end.p0(i64 4, ptr %2) #11
  %32 = load i32, ptr %1, align 4
  ret i32 %32
}

; Function Attrs: nounwind uwtable
define dso_local i32 @main(i32 noundef %0, ptr noundef %1) #0 {
  %3 = alloca i32, align 4
  %4 = alloca i32, align 4
  %5 = alloca ptr, align 8
  %6 = alloca %struct.func_args, align 8
  store i32 0, ptr %3, align 4
  store i32 %0, ptr %4, align 4, !tbaa !8
  store ptr %1, ptr %5, align 8, !tbaa !18
  call void @llvm.lifetime.start.p0(i64 40, ptr %6) #11
  br label %7

7:                                                ; preds = %2
  br label %8

8:                                                ; preds = %7
  br label %9

9:                                                ; preds = %8
  %10 = load i32, ptr %4, align 4, !tbaa !8
  %11 = getelementptr inbounds nuw %struct.func_args, ptr %6, i32 0, i32 0
  store i32 %10, ptr %11, align 8, !tbaa !24
  %12 = load ptr, ptr %5, align 8, !tbaa !18
  %13 = getelementptr inbounds nuw %struct.func_args, ptr %6, i32 0, i32 1
  store ptr %12, ptr %13, align 8, !tbaa !25
  %14 = getelementptr inbounds nuw %struct.func_args, ptr %6, i32 0, i32 2
  store i32 0, ptr %14, align 8, !tbaa !20
  %15 = call i32 @wolfSSL_Init()
  %16 = call i32 @ChangeToWolfRoot()
  call void @echoclient_test(ptr noundef %6)
  %17 = call i32 @wolfSSL_Cleanup()
  %18 = getelementptr inbounds nuw %struct.func_args, ptr %6, i32 0, i32 2
  %19 = load i32, ptr %18, align 8, !tbaa !20
  call void @llvm.lifetime.end.p0(i64 40, ptr %6) #11
  ret i32 %19
}